target datalayout = "e-m:e-p270:32:32-p271:32:32-p272:64:64-i64:64-i128:128-f80:128-n8:16:32:64-S128"
target triple = "x86_64-pc-linux-gnu"

%struct.Bac_Man_t_ = type { ptr, ptr, ptr, ptr, i32, i32, ptr, ptr, ptr, %struct.Vec_Int_t_, %struct.Vec_Int_t_, %struct.Vec_Int_t_, %struct.Vec_Int_t_, ptr, ptr, [4 x i32], [73 x ptr], [73 x ptr] }
%struct.Vec_Int_t_ = type { i32, i32, ptr }

@.str = private unnamed_addr constant [56 x i8] c"The library does not have one of the elementary gates.\0A\00", align 1

; Function Attrs: nounwind uwtable
define void @Bac_NtkPrepareLibrary(ptr noundef %0, ptr noundef %1) #0 {
  %3 = alloca ptr, align 8
  %4 = alloca ptr, align 8
  %5 = alloca ptr, align 8
  %6 = alloca ptr, align 8
  %7 = alloca ptr, align 8
  %8 = alloca ptr, align 8
  store ptr %0, ptr %3, align 8
  store ptr %1, ptr %4, align 8
  %9 = load ptr, ptr %4, align 8
  %10 = call ptr @Mio_LibraryReadConst0(ptr noundef %9)
  store ptr %10, ptr %6, align 8
  %11 = load ptr, ptr %4, align 8
  %12 = call ptr @Mio_LibraryReadConst1(ptr noundef %11)
  store ptr %12, ptr %7, align 8
  %13 = load ptr, ptr %4, align 8
  %14 = call ptr @Mio_LibraryReadBuf(ptr noundef %13)
  store ptr %14, ptr %8, align 8
  %15 = load ptr, ptr %6, align 8
  %16 = icmp ne ptr %15, null
  br i1 %16, label %17, label %23

17:                                               ; preds = %2
  %18 = load ptr, ptr %7, align 8
  %19 = icmp ne ptr %18, null
  br i1 %19, label %20, label %23

20:                                               ; preds = %17
  %21 = load ptr, ptr %8, align 8
  %22 = icmp ne ptr %21, null
  br i1 %22, label %25, label %23

23:                                               ; preds = %20, %17, %2
  %24 = call i32 (ptr, ...) @printf(ptr noundef @.str)
  br label %81

25:                                               ; preds = %20
  %26 = load ptr, ptr %3, align 8
  %27 = getelementptr inbounds %struct.Bac_Man_t_, ptr %26, i32 0, i32 3
  %28 = load ptr, ptr %27, align 8
  %29 = load ptr, ptr %6, align 8
  %30 = call ptr @Mio_GateReadName(ptr noundef %29)
  %31 = call i32 @Abc_NamStrFindOrAdd(ptr noundef %28, ptr noundef %30, ptr noundef null)
  %32 = load ptr, ptr %3, align 8
  %33 = getelementptr inbounds %struct.Bac_Man_t_, ptr %32, i32 0, i32 15
  %34 = getelementptr inbounds [4 x i32], ptr %33, i64 0, i64 0
  store i32 %31, ptr %34, align 8
  %35 = load ptr, ptr %3, align 8
  %36 = getelementptr inbounds %struct.Bac_Man_t_, ptr %35, i32 0, i32 3
  %37 = load ptr, ptr %36, align 8
  %38 = load ptr, ptr %7, align 8
  %39 = call ptr @Mio_GateReadName(ptr noundef %38)
  %40 = call i32 @Abc_NamStrFindOrAdd(ptr noundef %37, ptr noundef %39, ptr noundef null)
  %41 = load ptr, ptr %3, align 8
  %42 = getelementptr inbounds %struct.Bac_Man_t_, ptr %41, i32 0, i32 15
  %43 = getelementptr inbounds [4 x i32], ptr %42, i64 0, i64 1
  store i32 %40, ptr %43, align 4
  %44 = load ptr, ptr %3, align 8
  %45 = getelementptr inbounds %struct.Bac_Man_t_, ptr %44, i32 0, i32 3
  %46 = load ptr, ptr %45, align 8
  %47 = load ptr, ptr %8, align 8
  %48 = call ptr @Mio_GateReadName(ptr noundef %47)
  %49 = call i32 @Abc_NamStrFindOrAdd(ptr noundef %46, ptr noundef %48, ptr noundef null)
  %50 = load ptr, ptr %3, align 8
  %51 = getelementptr inbounds %struct.Bac_Man_t_, ptr %50, i32 0, i32 15
  %52 = getelementptr inbounds [4 x i32], ptr %51, i64 0, i64 2
  store i32 %49, ptr %52, align 8
  %53 = load ptr, ptr %4, align 8
  %54 = call ptr @Mio_LibraryReadGates(ptr noundef %53)
  store ptr %54, ptr %5, align 8
  br label %55

55:                                               ; preds = %78, %25
  %56 = load ptr, ptr %5, align 8
  %57 = icmp ne ptr %56, null
  br i1 %57, label %58, label %81

58:                                               ; preds = %55
  %59 = load ptr, ptr %5, align 8
  %60 = load ptr, ptr %6, align 8
  %61 = icmp ne ptr %59, %60
  br i1 %61, label %62, label %77

62:                                               ; preds = %58
  %63 = load ptr, ptr %5, align 8
  %64 = load ptr, ptr %7, align 8
  %65 = icmp ne ptr %63, %64
  br i1 %65, label %66, label %77

66:                                               ; preds = %62
  %67 = load ptr, ptr %5, align 8
  %68 = load ptr, ptr %8, align 8
  %69 = icmp ne ptr %67, %68
  br i1 %69, label %70, label %77

70:                                               ; preds = %66
  %71 = load ptr, ptr %3, align 8
  %72 = getelementptr inbounds %struct.Bac_Man_t_, ptr %71, i32 0, i32 3
  %73 = load ptr, ptr %72, align 8
  %74 = load ptr, ptr %5, align 8
  %75 = call ptr @Mio_GateReadName(ptr noundef %74)
  %76 = call i32 @Abc_NamStrFindOrAdd(ptr noundef %73, ptr noundef %75, ptr noundef null)
  br label %77

77:                                               ; preds = %70, %66, %62, %58
  br label %78

78:                                               ; preds = %77
  %79 = load ptr, ptr %5, align 8
  %80 = call ptr @Mio_GateReadNext(ptr noundef %79)
  store ptr %80, ptr %5, align 8
  br label %55, !llvm.loop !39

81:                                               ; preds = %55, %23
  ret void
}