; Function Attrs: nounwind uwtable
define void @Bac_NtkPrepareLibrary(ptr noundef captures(none) %0, ptr noundef %1) local_unnamed_addr #0 {
  %3 = tail call ptr @Mio_LibraryReadConst0(ptr noundef %1) #17
  %4 = tail call ptr @Mio_LibraryReadConst1(ptr noundef %1) #17
  %5 = tail call ptr @Mio_LibraryReadBuf(ptr noundef %1) #17
  %6 = icmp ne ptr %3, null
  %7 = icmp ne ptr %4, null
  %or.cond = select i1 %6, i1 %7, i1 false
  %8 = icmp ne ptr %5, null
  %or.cond3 = select i1 %or.cond, i1 %8, i1 false
  br i1 %or.cond3, label %10, label %9

9:                                                ; preds = %2
  %puts = tail call i32 @puts(ptr nonnull dereferenceable(1) @str)
  br label %.loopexit

10:                                               ; preds = %2
  %11 = getelementptr inbounds nuw i8, ptr %0, i64 24
  %12 = load ptr, ptr %11, align 8
  %13 = tail call ptr @Mio_GateReadName(ptr noundef nonnull %3) #17
  %14 = tail call i32 @Abc_NamStrFindOrAdd(ptr noundef %12, ptr noundef %13, ptr noundef null) #17
  %15 = getelementptr inbounds nuw i8, ptr %0, i64 144
  store i32 %14, ptr %15, align 8
  %16 = load ptr, ptr %11, align 8
  %17 = tail call ptr @Mio_GateReadName(ptr noundef nonnull %4) #17
  %18 = tail call i32 @Abc_NamStrFindOrAdd(ptr noundef %16, ptr noundef %17, ptr noundef null) #17
  %19 = getelementptr inbounds nuw i8, ptr %0, i64 148
  store i32 %18, ptr %19, align 4
  %20 = load ptr, ptr %11, align 8
  %21 = tail call ptr @Mio_GateReadName(ptr noundef nonnull %5) #17
  %22 = tail call i32 @Abc_NamStrFindOrAdd(ptr noundef %20, ptr noundef %21, ptr noundef null) #17
  %23 = getelementptr inbounds nuw i8, ptr %0, i64 152
  store i32 %22, ptr %23, align 8
  %24 = tail call ptr @Mio_LibraryReadGates(ptr noundef %1) #17
  %.not37 = icmp eq ptr %24, null
  br i1 %.not37, label %.loopexit, label %.lr.ph

.lr.ph:                                           ; preds = %10, %29
  %.038 = phi ptr [ %30, %29 ], [ %24, %10 ]
  %.not32 = icmp eq ptr %.038, %3
  %.not33 = icmp eq ptr %.038, %4
  %or.cond35 = select i1 %.not32, i1 true, i1 %.not33
  %.not34 = icmp eq ptr %.038, %5
  %or.cond36 = select i1 %or.cond35, i1 true, i1 %.not34
  br i1 %or.cond36, label %29, label %25

25:                                               ; preds = %.lr.ph
  %26 = load ptr, ptr %11, align 8
  %27 = tail call ptr @Mio_GateReadName(ptr noundef nonnull %.038) #17
  %28 = tail call i32 @Abc_NamStrFindOrAdd(ptr noundef %26, ptr noundef %27, ptr noundef null) #17
  br label %29

29:                                               ; preds = %.lr.ph, %25
  %30 = tail call ptr @Mio_GateReadNext(ptr noundef nonnull %.038) #17
  %.not = icmp eq ptr %30, null
  br i1 %.not, label %.loopexit, label %.lr.ph, !llvm.loop !56

.loopexit:                                        ; preds = %29, %10, %9
  ret void
}